target datalayout = "e-m:e-p270:32:32-p271:32:32-p272:64:64-i64:64-i128:128-f80:128-n8:16:32:64-S128"
target triple = "x86_64-pc-linux-gnu"

%"class.icu_77::numparse::impl::ScientificMatcher" = type { %"class.icu_77::numparse::impl::NumberParseMatcher", %"class.icu_77::UnicodeString", %"class.icu_77::numparse::impl::DecimalMatcher", %"class.icu_77::numparse::impl::IgnorablesMatcher", %"class.icu_77::UnicodeString", %"class.icu_77::UnicodeString" }
%"class.icu_77::numparse::impl::NumberParseMatcher" = type { ptr }
%"class.icu_77::numparse::impl::DecimalMatcher" = type { %"class.icu_77::numparse::impl::NumberParseMatcher", i8, i8, i8, i16, i16, %"class.icu_77::UnicodeString", %"class.icu_77::UnicodeString", ptr, ptr, ptr, ptr, %"class.icu_77::LocalPointer", %"class.icu_77::LocalPointer", %"class.icu_77::LocalArray" }
%"class.icu_77::LocalPointer" = type { %"class.icu_77::LocalPointerBase" }
%"class.icu_77::LocalPointerBase" = type { ptr }
%"class.icu_77::LocalArray" = type { %"class.icu_77::LocalPointerBase.1" }
%"class.icu_77::LocalPointerBase.1" = type { ptr }
%"class.icu_77::numparse::impl::IgnorablesMatcher" = type { %"class.icu_77::numparse::impl::SymbolMatcher" }
%"class.icu_77::numparse::impl::SymbolMatcher" = type { %"class.icu_77::numparse::impl::NumberParseMatcher", %"class.icu_77::UnicodeString", ptr }
%"class.icu_77::UnicodeString" = type { %"class.icu_77::Replaceable", %"union.icu_77::UnicodeString::StackBufferOrFields" }
%"class.icu_77::Replaceable" = type { %"class.icu_77::UObject" }
%"class.icu_77::UObject" = type { ptr }
%"union.icu_77::UnicodeString::StackBufferOrFields" = type { %struct.anon.0, [32 x i8] }
%struct.anon.0 = type { i16, i32, i32, ptr }
%"class.icu_77::DecimalFormatSymbols" = type <{ %"class.icu_77::UObject", [29 x %"class.icu_77::UnicodeString"], %"class.icu_77::UnicodeString", i32, [4 x i8], %"class.icu_77::Locale", ptr, ptr, ptr, [3 x %"class.icu_77::UnicodeString"], [3 x %"class.icu_77::UnicodeString"], i8, i8, [9 x i8], [5 x i8] }>
%"class.icu_77::Locale" = type <{ %"class.icu_77::UObject", [12 x i8], [6 x i8], [4 x i8], [2 x i8], i32, [4 x i8], ptr, [157 x i8], [3 x i8], ptr, i8, [7 x i8] }>
%struct.anon = type { i16, [27 x i16] }

@_ZTVN6icu_777UObjectE = available_externally unnamed_addr constant { [5 x ptr] } { [5 x ptr] [ptr null, ptr @_ZTIN6icu_777UObjectE, ptr @_ZN6icu_777UObjectD1Ev, ptr @_ZN6icu_777UObjectD0Ev, ptr @_ZNK6icu_777UObject17getDynamicClassIDEv] }, align 8
@_ZTVN6icu_778numparse4impl13SymbolMatcherE = external unnamed_addr constant { [11 x ptr] }, align 8

; Function Attrs: inlinehint mustprogress nounwind uwtable
define linkonce_odr void @_ZN6icu_777UObjectC2Ev(ptr noundef nonnull align 8 dereferenceable(8) %0) unnamed_addr #2 comdat align 2 {
  %2 = alloca ptr, align 8
  store ptr %0, ptr %2, align 8, !tbaa !49
  %3 = load ptr, ptr %2, align 8
  store ptr getelementptr inbounds inrange(-16, 24) ({ [5 x ptr] }, ptr @_ZTVN6icu_777UObjectE, i32 0, i32 0, i32 2), ptr %3, align 8, !tbaa !12
  ret void
}

; Function Attrs: inlinehint mustprogress nounwind uwtable
define linkonce_odr void @_ZN6icu_7711ReplaceableC2Ev(ptr noundef nonnull align 8 dereferenceable(8) %0) unnamed_addr #2 comdat align 2 {
  %2 = alloca ptr, align 8
  store ptr %0, ptr %2, align 8, !tbaa !47
  %3 = load ptr, ptr %2, align 8
  call void @_ZN6icu_777UObjectC2Ev(ptr noundef nonnull align 8 dereferenceable(8) %3) #9
  store ptr getelementptr inbounds inrange(-16, 88) ({ [13 x ptr] }, ptr @_ZTVN6icu_7711ReplaceableE, i32 0, i32 0, i32 2), ptr %3, align 8, !tbaa !12
  ret void
}

; Function Attrs: inlinehint mustprogress nounwind uwtable
define linkonce_odr void @_ZN6icu_778numparse4impl13SymbolMatcherD2Ev(ptr noundef nonnull align 8 dereferenceable(80) %0) unnamed_addr #2 comdat align 2 {
  %2 = alloca ptr, align 8
  store ptr %0, ptr %2, align 8, !tbaa !21
  %3 = load ptr, ptr %2, align 8
  store ptr getelementptr inbounds inrange(-16, 72) ({ [11 x ptr] }, ptr @_ZTVN6icu_778numparse4impl13SymbolMatcherE, i32 0, i32 0, i32 2), ptr %3, align 8, !tbaa !12
  %4 = getelementptr inbounds nuw %"class.icu_77::numparse::impl::SymbolMatcher", ptr %3, i32 0, i32 1
  call void @_ZN6icu_7713UnicodeStringD1Ev(ptr noundef nonnull align 8 dereferenceable(64) %4) #9
  call void @_ZN6icu_778numparse4impl18NumberParseMatcherD2Ev(ptr noundef nonnull align 8 dereferenceable(8) %3) #9
  ret void
}

; Function Attrs: inlinehint mustprogress uwtable
define internal noundef nonnull align 8 dereferenceable(200) ptr @_ZN12_GLOBAL__N_111plusSignSetEv() #4 {
  %1 = call noundef ptr @_ZN6icu_777unisets3getENS0_3KeyE(i32 noundef 12)
  ret ptr %1
}

; Function Attrs: inlinehint mustprogress uwtable
define internal noundef nonnull align 8 dereferenceable(200) ptr @_ZN12_GLOBAL__N_112minusSignSetEv() #4 {
  %1 = call noundef ptr @_ZN6icu_777unisets3getENS0_3KeyE(i32 noundef 11)
  ret ptr %1
}

; Function Attrs: inlinehint mustprogress uwtable
define linkonce_odr void @_ZN6icu_7713UnicodeStringC2Ev(ptr noundef nonnull align 8 dereferenceable(64) %0) unnamed_addr #4 comdat align 2 {
  %2 = alloca ptr, align 8
  store ptr %0, ptr %2, align 8, !tbaa !14
  %3 = load ptr, ptr %2, align 8
  call void @_ZN6icu_7711ReplaceableC2Ev(ptr noundef nonnull align 8 dereferenceable(8) %3)
  store ptr getelementptr inbounds inrange(-16, 88) ({ [13 x ptr] }, ptr @_ZTVN6icu_7713UnicodeStringE, i32 0, i32 0, i32 2), ptr %3, align 8, !tbaa !12
  %4 = getelementptr inbounds nuw %"class.icu_77::UnicodeString", ptr %3, i32 0, i32 1
  %5 = getelementptr inbounds nuw %struct.anon, ptr %4, i32 0, i32 0
  store i16 2, ptr %5, align 8, !tbaa !20
  ret void
}

; Function Attrs: inlinehint mustprogress nounwind uwtable
define linkonce_odr noundef nonnull align 8 dereferenceable(64) ptr @_ZNK6icu_7720DecimalFormatSymbols14getConstSymbolENS0_19ENumberFormatSymbolE(ptr noundef nonnull align 8 dereferenceable(2579) %0, i32 noundef %1) #2 comdat align 2 {
  %3 = alloca ptr, align 8
  %4 = alloca i32, align 4
  %5 = alloca ptr, align 8
  store ptr %0, ptr %3, align 8, !tbaa !8
  store i32 %1, ptr %4, align 4, !tbaa !18
  %6 = load ptr, ptr %3, align 8
  call void @llvm.lifetime.start.p0(i64 8, ptr %5) #9
  %7 = load i32, ptr %4, align 4, !tbaa !18
  %8 = icmp slt i32 %7, 29
  br i1 %8, label %9, label %14

9:                                                ; preds = %2
  %10 = getelementptr inbounds nuw %"class.icu_77::DecimalFormatSymbols", ptr %6, i32 0, i32 1
  %11 = load i32, ptr %4, align 4, !tbaa !18
  %12 = zext i32 %11 to i64
  %13 = getelementptr inbounds nuw [29 x %"class.icu_77::UnicodeString"], ptr %10, i64 0, i64 %12
  store ptr %13, ptr %5, align 8, !tbaa !14
  br label %16

14:                                               ; preds = %2
  %15 = getelementptr inbounds nuw %"class.icu_77::DecimalFormatSymbols", ptr %6, i32 0, i32 2
  store ptr %15, ptr %5, align 8, !tbaa !14
  br label %16

16:                                               ; preds = %14, %9
  %17 = load ptr, ptr %5, align 8, !tbaa !14
  call void @llvm.lifetime.end.p0(i64 8, ptr %5) #9
  ret ptr %17
}

; Function Attrs: mustprogress nounwind uwtable
define linkonce_odr void @_ZN6icu_778numparse4impl18NumberParseMatcherC2Ev(ptr noundef nonnull align 8 dereferenceable(8) %0) unnamed_addr #1 comdat align 2 {
  %2 = alloca ptr, align 8
  store ptr %0, ptr %2, align 8, !tbaa !16
  %3 = load ptr, ptr %2, align 8
  store ptr getelementptr inbounds inrange(-16, 56) ({ [9 x ptr] }, ptr @_ZTVN6icu_778numparse4impl18NumberParseMatcherE, i32 0, i32 0, i32 2), ptr %3, align 8, !tbaa !12
  ret void
}

; Function Attrs: mustprogress uwtable
define void @_ZN6icu_778numparse4impl17ScientificMatcherC2ERKNS_20DecimalFormatSymbolsERKNS_6number4impl7GrouperE(ptr noundef nonnull align 8 dereferenceable(480) %0, ptr noundef nonnull align 8 dereferenceable(2579) %1, ptr noundef nonnull align 4 dereferenceable(12) %2) unnamed_addr #0 align 2 personality ptr @__gxx_personality_v0 {
  %4 = alloca ptr, align 8
  %5 = alloca ptr, align 8
  %6 = alloca ptr, align 8
  %7 = alloca ptr, align 8
  %8 = alloca i32, align 4
  %9 = alloca ptr, align 8
  %10 = alloca ptr, align 8
  store ptr %0, ptr %4, align 8, !tbaa !3
  store ptr %1, ptr %5, align 8, !tbaa !8
  store ptr %2, ptr %6, align 8, !tbaa !10
  %11 = load ptr, ptr %4, align 8
  call void @_ZN6icu_778numparse4impl18NumberParseMatcherC2Ev(ptr noundef nonnull align 8 dereferenceable(8) %11) #9
  store ptr getelementptr inbounds inrange(-16, 56) ({ [9 x ptr] }, ptr @_ZTVN6icu_778numparse4impl17ScientificMatcherE, i32 0, i32 0, i32 2), ptr %11, align 8, !tbaa !12
  %12 = getelementptr inbounds nuw %"class.icu_77::numparse::impl::ScientificMatcher", ptr %11, i32 0, i32 1
  %13 = load ptr, ptr %5, align 8, !tbaa !8
  %14 = invoke noundef nonnull align 8 dereferenceable(64) ptr @_ZNK6icu_7720DecimalFormatSymbols14getConstSymbolENS0_19ENumberFormatSymbolE(ptr noundef nonnull align 8 dereferenceable(2579) %13, i32 noundef 11)
          to label %15 unwind label %39

15:                                               ; preds = %3
  invoke void @_ZN6icu_7713UnicodeStringC1ERKS0_(ptr noundef nonnull align 8 dereferenceable(64) %12, ptr noundef nonnull align 8 dereferenceable(64) %14)
          to label %16 unwind label %39

16:                                               ; preds = %15
  %17 = getelementptr inbounds nuw %"class.icu_77::numparse::impl::ScientificMatcher", ptr %11, i32 0, i32 2
  %18 = load ptr, ptr %5, align 8, !tbaa !8
  %19 = load ptr, ptr %6, align 8, !tbaa !10
  invoke void @_ZN6icu_778numparse4impl14DecimalMatcherC1ERKNS_20DecimalFormatSymbolsERKNS_6number4impl7GrouperEi(ptr noundef nonnull align 8 dereferenceable(200) %17, ptr noundef nonnull align 8 dereferenceable(2579) %18, ptr noundef nonnull align 4 dereferenceable(12) %19, i32 noundef 48)
          to label %20 unwind label %43

20:                                               ; preds = %16
  %21 = getelementptr inbounds nuw %"class.icu_77::numparse::impl::ScientificMatcher", ptr %11, i32 0, i32 3
  invoke void @_ZN6icu_778numparse4impl17IgnorablesMatcherC1Ei(ptr noundef nonnull align 8 dereferenceable(80) %21, i32 noundef 32768)
          to label %22 unwind label %47

22:                                               ; preds = %20
  %23 = getelementptr inbounds nuw %"class.icu_77::numparse::impl::ScientificMatcher", ptr %11, i32 0, i32 4
  invoke void @_ZN6icu_7713UnicodeStringC2Ev(ptr noundef nonnull align 8 dereferenceable(64) %23)
          to label %24 unwind label %51

24:                                               ; preds = %22
  %25 = getelementptr inbounds nuw %"class.icu_77::numparse::impl::ScientificMatcher", ptr %11, i32 0, i32 5
  invoke void @_ZN6icu_7713UnicodeStringC2Ev(ptr noundef nonnull align 8 dereferenceable(64) %25)
          to label %26 unwind label %55

26:                                               ; preds = %24
  call void @llvm.lifetime.start.p0(i64 8, ptr %9) #9
  %27 = load ptr, ptr %5, align 8, !tbaa !8
  %28 = invoke noundef nonnull align 8 dereferenceable(64) ptr @_ZNK6icu_7720DecimalFormatSymbols14getConstSymbolENS0_19ENumberFormatSymbolE(ptr noundef nonnull align 8 dereferenceable(2579) %27, i32 noundef 6)
          to label %29 unwind label %59

29:                                               ; preds = %26
  store ptr %28, ptr %9, align 8, !tbaa !14
  %30 = invoke noundef nonnull align 8 dereferenceable(200) ptr @_ZN12_GLOBAL__N_112minusSignSetEv()
          to label %31 unwind label %59

31:                                               ; preds = %29
  %32 = load ptr, ptr %9, align 8, !tbaa !14
  %33 = invoke noundef signext i8 @_ZNK6icu_7710UnicodeSet8containsERKNS_13UnicodeStringE(ptr noundef nonnull align 8 dereferenceable(200) %30, ptr noundef nonnull align 8 dereferenceable(64) %32)
          to label %34 unwind label %59

34:                                               ; preds = %31
  %35 = icmp ne i8 %33, 0
  br i1 %35, label %36, label %63

36:                                               ; preds = %34
  %37 = getelementptr inbounds nuw %"class.icu_77::numparse::impl::ScientificMatcher", ptr %11, i32 0, i32 4
  invoke void @_ZN6icu_7713UnicodeString10setToBogusEv(ptr noundef nonnull align 8 dereferenceable(64) %37)
          to label %38 unwind label %59

38:                                               ; preds = %36
  br label %68

39:                                               ; preds = %15, %3
  %40 = landingpad { ptr, i32 }
          cleanup
  %41 = extractvalue { ptr, i32 } %40, 0
  store ptr %41, ptr %7, align 8
  %42 = extractvalue { ptr, i32 } %40, 1
  store i32 %42, ptr %8, align 4
  br label %96

43:                                               ; preds = %16
  %44 = landingpad { ptr, i32 }
          cleanup
  %45 = extractvalue { ptr, i32 } %44, 0
  store ptr %45, ptr %7, align 8
  %46 = extractvalue { ptr, i32 } %44, 1
  store i32 %46, ptr %8, align 4
  br label %95

47:                                               ; preds = %20
  %48 = landingpad { ptr, i32 }
          cleanup
  %49 = extractvalue { ptr, i32 } %48, 0
  store ptr %49, ptr %7, align 8
  %50 = extractvalue { ptr, i32 } %48, 1
  store i32 %50, ptr %8, align 4
  br label %94

51:                                               ; preds = %22
  %52 = landingpad { ptr, i32 }
          cleanup
  %53 = extractvalue { ptr, i32 } %52, 0
  store ptr %53, ptr %7, align 8
  %54 = extractvalue { ptr, i32 } %52, 1
  store i32 %54, ptr %8, align 4
  br label %93

55:                                               ; preds = %24
  %56 = landingpad { ptr, i32 }
          cleanup
  %57 = extractvalue { ptr, i32 } %56, 0
  store ptr %57, ptr %7, align 8
  %58 = extractvalue { ptr, i32 } %56, 1
  store i32 %58, ptr %8, align 4
  br label %92

59:                                               ; preds = %63, %36, %31, %29, %26
  %60 = landingpad { ptr, i32 }
          cleanup
  %61 = extractvalue { ptr, i32 } %60, 0
  store ptr %61, ptr %7, align 8
  %62 = extractvalue { ptr, i32 } %60, 1
  store i32 %62, ptr %8, align 4
  br label %91

63:                                               ; preds = %34
  %64 = load ptr, ptr %9, align 8, !tbaa !14
  %65 = getelementptr inbounds nuw %"class.icu_77::numparse::impl::ScientificMatcher", ptr %11, i32 0, i32 4
  %66 = invoke noundef nonnull align 8 dereferenceable(64) ptr @_ZN6icu_7713UnicodeStringaSERKS0_(ptr noundef nonnull align 8 dereferenceable(64) %65, ptr noundef nonnull align 8 dereferenceable(64) %64)
          to label %67 unwind label %59

67:                                               ; preds = %63
  br label %68

68:                                               ; preds = %67, %38
  call void @llvm.lifetime.start.p0(i64 8, ptr %10) #9
  %69 = load ptr, ptr %5, align 8, !tbaa !8
  %70 = invoke noundef nonnull align 8 dereferenceable(64) ptr @_ZNK6icu_7720DecimalFormatSymbols14getConstSymbolENS0_19ENumberFormatSymbolE(ptr noundef nonnull align 8 dereferenceable(2579) %69, i32 noundef 7)
          to label %71 unwind label %81

71:                                               ; preds = %68
  store ptr %70, ptr %10, align 8, !tbaa !14
  %72 = invoke noundef nonnull align 8 dereferenceable(200) ptr @_ZN12_GLOBAL__N_111plusSignSetEv()
          to label %73 unwind label %81

73:                                               ; preds = %71
  %74 = load ptr, ptr %10, align 8, !tbaa !14
  %75 = invoke noundef signext i8 @_ZNK6icu_7710UnicodeSet8containsERKNS_13UnicodeStringE(ptr noundef nonnull align 8 dereferenceable(200) %72, ptr noundef nonnull align 8 dereferenceable(64) %74)
          to label %76 unwind label %81

76:                                               ; preds = %73
  %77 = icmp ne i8 %75, 0
  br i1 %77, label %78, label %85

78:                                               ; preds = %76
  %79 = getelementptr inbounds nuw %"class.icu_77::numparse::impl::ScientificMatcher", ptr %11, i32 0, i32 5
  invoke void @_ZN6icu_7713UnicodeString10setToBogusEv(ptr noundef nonnull align 8 dereferenceable(64) %79)
          to label %80 unwind label %81

80:                                               ; preds = %78
  br label %90

81:                                               ; preds = %85, %78, %73, %71, %68
  %82 = landingpad { ptr, i32 }
          cleanup
  %83 = extractvalue { ptr, i32 } %82, 0
  store ptr %83, ptr %7, align 8
  %84 = extractvalue { ptr, i32 } %82, 1
  store i32 %84, ptr %8, align 4
  call void @llvm.lifetime.end.p0(i64 8, ptr %10) #9
  br label %91

85:                                               ; preds = %76
  %86 = load ptr, ptr %10, align 8, !tbaa !14
  %87 = getelementptr inbounds nuw %"class.icu_77::numparse::impl::ScientificMatcher", ptr %11, i32 0, i32 5
  %88 = invoke noundef nonnull align 8 dereferenceable(64) ptr @_ZN6icu_7713UnicodeStringaSERKS0_(ptr noundef nonnull align 8 dereferenceable(64) %87, ptr noundef nonnull align 8 dereferenceable(64) %86)
          to label %89 unwind label %81

89:                                               ; preds = %85
  br label %90

90:                                               ; preds = %89, %80
  call void @llvm.lifetime.end.p0(i64 8, ptr %10) #9
  call void @llvm.lifetime.end.p0(i64 8, ptr %9) #9
  ret void

91:                                               ; preds = %81, %59
  call void @llvm.lifetime.end.p0(i64 8, ptr %9) #9
  call void @_ZN6icu_7713UnicodeStringD1Ev(ptr noundef nonnull align 8 dereferenceable(64) %25) #9
  br label %92

92:                                               ; preds = %91, %55
  call void @_ZN6icu_7713UnicodeStringD1Ev(ptr noundef nonnull align 8 dereferenceable(64) %23) #9
  br label %93

93:                                               ; preds = %92, %51
  call void @_ZN6icu_778numparse4impl13SymbolMatcherD2Ev(ptr noundef nonnull align 8 dereferenceable(80) %21) #9
  br label %94

94:                                               ; preds = %93, %47
  call void @_ZN6icu_778numparse4impl14DecimalMatcherD2Ev(ptr noundef nonnull align 8 dereferenceable(200) %17) #9
  br label %95

95:                                               ; preds = %94, %43
  call void @_ZN6icu_7713UnicodeStringD1Ev(ptr noundef nonnull align 8 dereferenceable(64) %12) #9
  br label %96

96:                                               ; preds = %95, %39
  call void @_ZN6icu_778numparse4impl18NumberParseMatcherD2Ev(ptr noundef nonnull align 8 dereferenceable(8) %11) #9
  br label %97

97:                                               ; preds = %96
  %98 = load ptr, ptr %7, align 8
  %99 = load i32, ptr %8, align 4
  %100 = insertvalue { ptr, i32 } poison, ptr %98, 0
  %101 = insertvalue { ptr, i32 } %100, i32 %99, 1
  resume { ptr, i32 } %101
}