; Function Attrs: mustprogress uwtable
define void @_ZN6icu_778numparse4impl17ScientificMatcherC2ERKNS_20DecimalFormatSymbolsERKNS_6number4impl7GrouperE(ptr noundef nonnull align 8 dereferenceable(480) initializes((0, 8)) %0, ptr noundef nonnull align 8 dereferenceable(2579) %1, ptr noundef nonnull align 4 dereferenceable(12) %2) unnamed_addr #0 align 2 personality ptr @__gxx_personality_v0 {
  store ptr getelementptr inbounds nuw inrange(-16, 56) (i8, ptr @_ZTVN6icu_778numparse4impl17ScientificMatcherE, i64 16), ptr %0, align 8, !tbaa !3
  %4 = getelementptr inbounds nuw i8, ptr %0, i64 8
  %5 = getelementptr inbounds nuw i8, ptr %1, i64 712
  invoke void @_ZN6icu_7713UnicodeStringC1ERKS0_(ptr noundef nonnull align 8 dereferenceable(64) %4, ptr noundef nonnull align 8 dereferenceable(64) %5)
          to label %6 unwind label %20

6:                                                ; preds = %3
  %7 = getelementptr inbounds nuw i8, ptr %0, i64 72
  invoke void @_ZN6icu_778numparse4impl14DecimalMatcherC1ERKNS_20DecimalFormatSymbolsERKNS_6number4impl7GrouperEi(ptr noundef nonnull align 8 dereferenceable(200) %7, ptr noundef nonnull align 8 dereferenceable(2579) %1, ptr noundef nonnull align 4 dereferenceable(12) %2, i32 noundef 48)
          to label %8 unwind label %22

8:                                                ; preds = %6
  %9 = getelementptr inbounds nuw i8, ptr %0, i64 272
  invoke void @_ZN6icu_778numparse4impl17IgnorablesMatcherC1Ei(ptr noundef nonnull align 8 dereferenceable(80) %9, i32 noundef 32768)
          to label %10 unwind label %24

10:                                               ; preds = %8
  %11 = getelementptr inbounds nuw i8, ptr %0, i64 352
  store ptr getelementptr inbounds nuw inrange(-16, 88) (i8, ptr @_ZTVN6icu_7713UnicodeStringE, i64 16), ptr %11, align 8, !tbaa !3
  %12 = getelementptr inbounds nuw i8, ptr %0, i64 360
  store i16 2, ptr %12, align 8, !tbaa !6
  %13 = getelementptr inbounds nuw i8, ptr %0, i64 416
  store ptr getelementptr inbounds nuw inrange(-16, 88) (i8, ptr @_ZTVN6icu_7713UnicodeStringE, i64 16), ptr %13, align 8, !tbaa !3
  %14 = getelementptr inbounds nuw i8, ptr %0, i64 424
  store i16 2, ptr %14, align 8, !tbaa !6
  %15 = getelementptr inbounds nuw i8, ptr %1, i64 392
  %16 = invoke noundef nonnull align 8 dereferenceable(200) ptr @_ZN6icu_777unisets3getENS0_3KeyE(i32 noundef 11)
          to label %_ZN12_GLOBAL__N_112minusSignSetEv.exit unwind label %26

_ZN12_GLOBAL__N_112minusSignSetEv.exit:           ; preds = %10
  %17 = invoke noundef signext i8 @_ZNK6icu_7710UnicodeSet8containsERKNS_13UnicodeStringE(ptr noundef nonnull align 8 dereferenceable(200) %16, ptr noundef nonnull align 8 dereferenceable(64) %15)
          to label %18 unwind label %26

18:                                               ; preds = %_ZN12_GLOBAL__N_112minusSignSetEv.exit
  %.not = icmp eq i8 %17, 0
  br i1 %.not, label %28, label %19

19:                                               ; preds = %18
  invoke void @_ZN6icu_7713UnicodeString10setToBogusEv(ptr noundef nonnull align 8 dereferenceable(64) %11)
          to label %30 unwind label %26

20:                                               ; preds = %3
  %21 = landingpad { ptr, i32 }
          cleanup
  br label %45

22:                                               ; preds = %6
  %23 = landingpad { ptr, i32 }
          cleanup
  br label %44

24:                                               ; preds = %8
  %25 = landingpad { ptr, i32 }
          cleanup
  br label %43

26:                                               ; preds = %10, %28, %19, %_ZN12_GLOBAL__N_112minusSignSetEv.exit
  %27 = landingpad { ptr, i32 }
          cleanup
  br label %41

28:                                               ; preds = %18
  %29 = invoke noundef nonnull align 8 dereferenceable(64) ptr @_ZN6icu_7713UnicodeStringaSERKS0_(ptr noundef nonnull align 8 dereferenceable(64) %11, ptr noundef nonnull align 8 dereferenceable(64) %15)
          to label %30 unwind label %26

30:                                               ; preds = %28, %19
  %31 = getelementptr inbounds nuw i8, ptr %1, i64 456
  %32 = invoke noundef nonnull align 8 dereferenceable(200) ptr @_ZN6icu_777unisets3getENS0_3KeyE(i32 noundef 12)
          to label %_ZN12_GLOBAL__N_111plusSignSetEv.exit unwind label %36

_ZN12_GLOBAL__N_111plusSignSetEv.exit:            ; preds = %30
  %33 = invoke noundef signext i8 @_ZNK6icu_7710UnicodeSet8containsERKNS_13UnicodeStringE(ptr noundef nonnull align 8 dereferenceable(200) %32, ptr noundef nonnull align 8 dereferenceable(64) %31)
          to label %34 unwind label %36

34:                                               ; preds = %_ZN12_GLOBAL__N_111plusSignSetEv.exit
  %.not17 = icmp eq i8 %33, 0
  br i1 %.not17, label %38, label %35

35:                                               ; preds = %34
  invoke void @_ZN6icu_7713UnicodeString10setToBogusEv(ptr noundef nonnull align 8 dereferenceable(64) %13)
          to label %40 unwind label %36

36:                                               ; preds = %30, %38, %35, %_ZN12_GLOBAL__N_111plusSignSetEv.exit
  %37 = landingpad { ptr, i32 }
          cleanup
  br label %41

38:                                               ; preds = %34
  %39 = invoke noundef nonnull align 8 dereferenceable(64) ptr @_ZN6icu_7713UnicodeStringaSERKS0_(ptr noundef nonnull align 8 dereferenceable(64) %13, ptr noundef nonnull align 8 dereferenceable(64) %31)
          to label %40 unwind label %36

40:                                               ; preds = %38, %35
  ret void

41:                                               ; preds = %36, %26
  %.pn = phi { ptr, i32 } [ %37, %36 ], [ %27, %26 ]
  tail call void @_ZN6icu_7713UnicodeStringD1Ev(ptr noundef nonnull align 8 dereferenceable(64) %13) #5
  tail call void @_ZN6icu_7713UnicodeStringD1Ev(ptr noundef nonnull align 8 dereferenceable(64) %11) #5
  store ptr getelementptr inbounds nuw inrange(-16, 72) (i8, ptr @_ZTVN6icu_778numparse4impl13SymbolMatcherE, i64 16), ptr %9, align 8, !tbaa !3
  %42 = getelementptr inbounds nuw i8, ptr %0, i64 280
  tail call void @_ZN6icu_7713UnicodeStringD1Ev(ptr noundef nonnull align 8 dereferenceable(64) %42) #5
  tail call void @_ZN6icu_778numparse4impl18NumberParseMatcherD2Ev(ptr noundef nonnull align 8 dereferenceable(80) %9) #5
  br label %43

43:                                               ; preds = %41, %24
  %.pn.pn.pn.pn = phi { ptr, i32 } [ %.pn, %41 ], [ %25, %24 ]
  tail call void @_ZN6icu_778numparse4impl14DecimalMatcherD2Ev(ptr noundef nonnull align 8 dereferenceable(200) %7) #5
  br label %44

44:                                               ; preds = %43, %22
  %.pn.pn.pn.pn.pn = phi { ptr, i32 } [ %.pn.pn.pn.pn, %43 ], [ %23, %22 ]
  tail call void @_ZN6icu_7713UnicodeStringD1Ev(ptr noundef nonnull align 8 dereferenceable(64) %4) #5
  br label %45

45:                                               ; preds = %44, %20
  %.pn.pn.pn.pn.pn.pn = phi { ptr, i32 } [ %.pn.pn.pn.pn.pn, %44 ], [ %21, %20 ]
  tail call void @_ZN6icu_778numparse4impl18NumberParseMatcherD2Ev(ptr noundef nonnull align 8 dereferenceable(8) %0) #5
  resume { ptr, i32 } %.pn.pn.pn.pn.pn.pn
}